; Function Attrs: mustprogress uwtable
define hidden noundef zeroext i1 @_ZN12mpbq_manager2ltERK4mpbqRK3mpq(ptr noundef nonnull align 8 dereferenceable(208) %0, ptr noundef nonnull align 8 dereferenceable(20) %1, ptr noundef nonnull align 8 dereferenceable(32) %2) local_unnamed_addr #3 align 2 {
  %4 = getelementptr inbounds nuw i8, ptr %1, i64 16
  %5 = load i32, ptr %4, align 8, !tbaa !13
  %6 = icmp eq i32 %5, 0
  br i1 %6, label %7, label %34

7:                                                ; preds = %3
  %8 = getelementptr inbounds nuw i8, ptr %2, i64 16
  %9 = getelementptr inbounds nuw i8, ptr %2, i64 20
  %10 = load i8, ptr %9, align 4
  %11 = and i8 %10, 1
  %12 = icmp eq i8 %11, 0
  %13 = load i32, ptr %8, align 8
  %14 = icmp eq i32 %13, 1
  %15 = select i1 %12, i1 %14, i1 false
  br i1 %15, label %16, label %34

16:                                               ; preds = %7
  %17 = load ptr, ptr %0, align 8, !tbaa !26
  %18 = getelementptr inbounds nuw i8, ptr %1, i64 4
  %19 = load i8, ptr %18, align 4
  %20 = and i8 %19, 1
  %21 = icmp eq i8 %20, 0
  br i1 %21, label %22, label %31

22:                                               ; preds = %16
  %23 = getelementptr inbounds nuw i8, ptr %2, i64 4
  %24 = load i8, ptr %23, align 4
  %25 = and i8 %24, 1
  %26 = icmp eq i8 %25, 0
  br i1 %26, label %27, label %31

27:                                               ; preds = %22
  %28 = load i32, ptr %1, align 8, !tbaa !3
  %29 = load i32, ptr %2, align 8, !tbaa !3
  %30 = icmp slt i32 %28, %29
  br label %_ZN11mpz_managerILb0EE2ltERK3mpzS3_.exit

31:                                               ; preds = %22, %16
  %32 = tail call noundef i32 @_ZN11mpz_managerILb0EE11big_compareERK3mpzS3_(ptr noundef nonnull align 8 dereferenceable(600) %17, ptr noundef nonnull align 8 dereferenceable(16) %1, ptr noundef nonnull align 8 dereferenceable(16) %2)
  %33 = icmp slt i32 %32, 0
  br label %_ZN11mpz_managerILb0EE2ltERK3mpzS3_.exit

34:                                               ; preds = %7, %3
  %35 = load ptr, ptr %0, align 8, !tbaa !26
  %36 = getelementptr inbounds nuw i8, ptr %2, i64 16
  %37 = getelementptr inbounds nuw i8, ptr %0, i64 8
  tail call void @_ZN11mpz_managerILb0EE3mulERK3mpzS3_RS1_(ptr noundef nonnull align 8 dereferenceable(600) %35, ptr noundef nonnull align 8 dereferenceable(16) %1, ptr noundef nonnull align 8 dereferenceable(16) %36, ptr noundef nonnull align 8 dereferenceable(16) %37)
  %38 = load ptr, ptr %0, align 8, !tbaa !26
  %39 = load i32, ptr %4, align 8, !tbaa !13
  %40 = getelementptr inbounds nuw i8, ptr %0, i64 24
  %41 = getelementptr inbounds nuw i8, ptr %2, i64 4
  %42 = load i8, ptr %41, align 4
  %43 = and i8 %42, 1
  %44 = icmp eq i8 %43, 0
  br i1 %44, label %45, label %50

45:                                               ; preds = %34
  %46 = load i32, ptr %2, align 8, !tbaa !3
  store i32 %46, ptr %40, align 8, !tbaa !3
  %47 = getelementptr inbounds nuw i8, ptr %0, i64 28
  %48 = load i8, ptr %47, align 4
  %49 = and i8 %48, -2
  store i8 %49, ptr %47, align 4
  br label %_ZN11mpz_managerILb0EE5mul2kERK3mpzjRS1_.exit

50:                                               ; preds = %34
  tail call void @_ZN11mpz_managerILb0EE7big_setER3mpzRKS1_(ptr noundef nonnull align 8 dereferenceable(600) %38, ptr noundef nonnull align 8 dereferenceable(16) %40, ptr noundef nonnull align 8 dereferenceable(16) %2)
  br label %_ZN11mpz_managerILb0EE5mul2kERK3mpzjRS1_.exit

_ZN11mpz_managerILb0EE5mul2kERK3mpzjRS1_.exit:    ; preds = %45, %50
  tail call void @_ZN11mpz_managerILb0EE5mul2kER3mpzj(ptr noundef nonnull align 8 dereferenceable(600) %38, ptr noundef nonnull align 8 dereferenceable(16) %40, i32 noundef %39)
  %51 = load ptr, ptr %0, align 8, !tbaa !26
  %52 = getelementptr inbounds nuw i8, ptr %0, i64 12
  %53 = load i8, ptr %52, align 4
  %54 = and i8 %53, 1
  %55 = icmp eq i8 %54, 0
  br i1 %55, label %56, label %65

56:                                               ; preds = %_ZN11mpz_managerILb0EE5mul2kERK3mpzjRS1_.exit
  %57 = getelementptr inbounds nuw i8, ptr %0, i64 28
  %58 = load i8, ptr %57, align 4
  %59 = and i8 %58, 1
  %60 = icmp eq i8 %59, 0
  br i1 %60, label %61, label %65

61:                                               ; preds = %56
  %62 = load i32, ptr %37, align 8, !tbaa !3
  %63 = load i32, ptr %40, align 8, !tbaa !3
  %64 = icmp slt i32 %62, %63
  br label %_ZN11mpz_managerILb0EE2ltERK3mpzS3_.exit

65:                                               ; preds = %56, %_ZN11mpz_managerILb0EE5mul2kERK3mpzjRS1_.exit
  %66 = tail call noundef i32 @_ZN11mpz_managerILb0EE11big_compareERK3mpzS3_(ptr noundef nonnull align 8 dereferenceable(600) %51, ptr noundef nonnull align 8 dereferenceable(16) %37, ptr noundef nonnull align 8 dereferenceable(16) %40)
  %67 = icmp slt i32 %66, 0
  br label %_ZN11mpz_managerILb0EE2ltERK3mpzS3_.exit

_ZN11mpz_managerILb0EE2ltERK3mpzS3_.exit:         ; preds = %65, %61, %31, %27
  %.0 = phi i1 [ %30, %27 ], [ %33, %31 ], [ %64, %61 ], [ %67, %65 ]
  ret i1 %.0
}